; Function Attrs: null_pointer_is_valid sspstrong uwtable
define internal i32 @srvsvc_dissect_NetSetFileSecurity_request(ptr noundef %0, i32 noundef %1, ptr noundef %2, ptr noundef %3, ptr noundef initializes((72, 80)) %4, ptr noundef %5) #0 {
  %7 = alloca i32, align 4
  %8 = alloca ptr, align 8
  %9 = getelementptr inbounds nuw i8, ptr %4, i64 72
  store ptr @.str.1251, ptr %9, align 8
  %10 = load i32, ptr @hf_srvsvc_srvsvc_NetSetFileSecurity_server_unc, align 4
  %11 = tail call i32 @dissect_ndr_toplevel_pointer(ptr noundef %0, i32 noundef %1, ptr noundef %2, ptr noundef %3, ptr noundef %4, ptr noundef %5, ptr noundef nonnull @srvsvc_dissect_element_NetSetFileSecurity_server_unc_, i32 noundef 2, ptr noundef nonnull @.str.1266, i32 noundef %10)
  %12 = tail call i32 @dissect_deferred_pointers(ptr noundef %2, ptr noundef %0, i32 noundef %11, ptr noundef %4, ptr noundef %5)
  %13 = load i32, ptr @hf_srvsvc_srvsvc_NetSetFileSecurity_share, align 4
  %14 = tail call i32 @dissect_ndr_toplevel_pointer(ptr noundef %0, i32 noundef %12, ptr noundef %2, ptr noundef %3, ptr noundef %4, ptr noundef %5, ptr noundef nonnull @srvsvc_dissect_element_NetSetFileSecurity_share_, i32 noundef 2, ptr noundef nonnull @.str.1116, i32 noundef %13)
  %15 = tail call i32 @dissect_deferred_pointers(ptr noundef %2, ptr noundef %0, i32 noundef %14, ptr noundef %4, ptr noundef %5)
  call void @llvm.lifetime.start.p0(i64 8, ptr nonnull %8) #4
  %16 = load i32, ptr @hf_srvsvc_srvsvc_NetSetFileSecurity_file, align 4
  %17 = call i32 @dissect_ndr_cvstring(ptr noundef %0, i32 noundef %15, ptr noundef %2, ptr noundef %3, ptr noundef %4, ptr noundef %5, i32 noundef 2, i32 noundef %16, i1 noundef zeroext false, ptr noundef nonnull %8)
  %18 = load ptr, ptr %8, align 8
  call void (ptr, ptr, ...) @proto_item_append_text(ptr noundef %3, ptr noundef nonnull @.str.1102, ptr noundef %18)
  call void @llvm.lifetime.end.p0(i64 8, ptr nonnull %8) #4
  %19 = call i32 @dissect_deferred_pointers(ptr noundef %2, ptr noundef %0, i32 noundef %17, ptr noundef %4, ptr noundef %5)
  %20 = getelementptr i8, ptr %4, i64 25
  %.val = load i8, ptr %20, align 1, !range !6, !noundef !7
  %21 = trunc nuw i8 %.val to i1
  br i1 %21, label %srvsvc_dissect_element_NetSetFileSecurity_securityinformation.exit, label %22

22:                                               ; preds = %6
  %23 = call i32 @dissect_security_information_mask(ptr noundef %0, ptr noundef %3, i32 noundef %19)
  br label %srvsvc_dissect_element_NetSetFileSecurity_securityinformation.exit

srvsvc_dissect_element_NetSetFileSecurity_securityinformation.exit: ; preds = %6, %22
  %.0.i.i = phi i32 [ %23, %22 ], [ %19, %6 ]
  %24 = call i32 @dissect_deferred_pointers(ptr noundef %2, ptr noundef %0, i32 noundef %.0.i.i, ptr noundef %4, ptr noundef %5)
  call void @llvm.lifetime.start.p0(i64 4, ptr nonnull %7) #4
  %25 = load i8, ptr %20, align 1, !range !6, !noundef !7
  %26 = trunc nuw i8 %25 to i1
  br i1 %26, label %srvsvc_dissect_element_NetSetFileSecurity_sd_buf.exit, label %27

27:                                               ; preds = %srvsvc_dissect_element_NetSetFileSecurity_securityinformation.exit
  %28 = load i32, ptr @hf_srvsvc_sec_desc_buf_len, align 4
  %29 = call i32 @dissect_ndr_uint32(ptr noundef %0, i32 noundef %24, ptr noundef %2, ptr noundef %3, ptr noundef %4, ptr noundef %5, i32 noundef %28, ptr noundef nonnull %7)
  %30 = load i32, ptr %7, align 4
  %31 = call i32 @dissect_nt_sec_desc(ptr noundef %0, i32 noundef %29, ptr noundef %2, ptr noundef %3, ptr noundef %5, i1 noundef zeroext true, i32 noundef %30, ptr noundef null)
  %32 = load i32, ptr %7, align 4
  %33 = add i32 %32, %29
  br label %srvsvc_dissect_element_NetSetFileSecurity_sd_buf.exit

srvsvc_dissect_element_NetSetFileSecurity_sd_buf.exit: ; preds = %srvsvc_dissect_element_NetSetFileSecurity_securityinformation.exit, %27
  %.0.i.i56 = phi i32 [ %33, %27 ], [ %24, %srvsvc_dissect_element_NetSetFileSecurity_securityinformation.exit ]
  call void @llvm.lifetime.end.p0(i64 4, ptr nonnull %7) #4
  %34 = call i32 @dissect_deferred_pointers(ptr noundef %2, ptr noundef %0, i32 noundef %.0.i.i56, ptr noundef %4, ptr noundef %5)
  ret i32 %34
}